#include <math.h>
#include <stdio.h>
#include <stdlib.h>
#include <string.h>

void main()
{
	int a[300];
	int k,j,i=0;
	int t;
	do
	{scanf("%d",&a[i]);
	i++;}while(getchar()!='\n');
	for(j=0;j<i-1;j++)
		for(k=0;k<i-1-j;k++)
		if(a[k]<a[k+1])
		{t=a[k];
		 a[k]=a[k+1];
		 a[k+1]=t;
		}
	for(j=1;j<i;j++)
	   if(a[j]<a[0])
	   {printf("%d",a[j]);
	   break;}
	if(j==i) printf("No");
}