; ModuleID = '22/247.c'
source_filename = "22/247.c"
target datalayout = "e-m:e-p270:32:32-p271:32:32-p272:64:64-i64:64-f80:128-n8:16:32:64-S128"
target triple = "x86_64-pc-linux-gnu"

@.str = private unnamed_addr constant [3 x i8] c"%d\00", align 1
@.str.1 = private unnamed_addr constant [3 x i8] c"No\00", align 1

; Function Attrs: noinline nounwind uwtable
define dso_local void @main() #0 {
  %1 = alloca [300 x i32], align 16
  %2 = alloca i32, align 4
  %3 = alloca i32, align 4
  %4 = alloca i32, align 4
  %5 = alloca i32, align 4
  store i32 0, i32* %4, align 4
  br label %6

6:                                                ; preds = %13, %0
  %7 = load i32, i32* %4, align 4
  %8 = sext i32 %7 to i64
  %9 = getelementptr inbounds [300 x i32], [300 x i32]* %1, i64 0, i64 %8
  %10 = call i32 (i8*, ...) @__isoc99_scanf(i8* getelementptr inbounds ([3 x i8], [3 x i8]* @.str, i64 0, i64 0), i32* %9)
  %11 = load i32, i32* %4, align 4
  %12 = add nsw i32 %11, 1
  store i32 %12, i32* %4, align 4
  br label %13

13:                                               ; preds = %6
  %14 = call i32 @getchar()
  %15 = icmp ne i32 %14, 10
  br i1 %15, label %6, label %16

16:                                               ; preds = %13
  store i32 0, i32* %3, align 4
  br label %17

17:                                               ; preds = %64, %16
  %18 = load i32, i32* %3, align 4
  %19 = load i32, i32* %4, align 4
  %20 = sub nsw i32 %19, 1
  %21 = icmp slt i32 %18, %20
  br i1 %21, label %22, label %67

22:                                               ; preds = %17
  store i32 0, i32* %2, align 4
  br label %23

23:                                               ; preds = %60, %22
  %24 = load i32, i32* %2, align 4
  %25 = load i32, i32* %4, align 4
  %26 = sub nsw i32 %25, 1
  %27 = load i32, i32* %3, align 4
  %28 = sub nsw i32 %26, %27
  %29 = icmp slt i32 %24, %28
  br i1 %29, label %30, label %63

30:                                               ; preds = %23
  %31 = load i32, i32* %2, align 4
  %32 = sext i32 %31 to i64
  %33 = getelementptr inbounds [300 x i32], [300 x i32]* %1, i64 0, i64 %32
  %34 = load i32, i32* %33, align 4
  %35 = load i32, i32* %2, align 4
  %36 = add nsw i32 %35, 1
  %37 = sext i32 %36 to i64
  %38 = getelementptr inbounds [300 x i32], [300 x i32]* %1, i64 0, i64 %37
  %39 = load i32, i32* %38, align 4
  %40 = icmp slt i32 %34, %39
  br i1 %40, label %41, label %59

41:                                               ; preds = %30
  %42 = load i32, i32* %2, align 4
  %43 = sext i32 %42 to i64
  %44 = getelementptr inbounds [300 x i32], [300 x i32]* %1, i64 0, i64 %43
  %45 = load i32, i32* %44, align 4
  store i32 %45, i32* %5, align 4
  %46 = load i32, i32* %2, align 4
  %47 = add nsw i32 %46, 1
  %48 = sext i32 %47 to i64
  %49 = getelementptr inbounds [300 x i32], [300 x i32]* %1, i64 0, i64 %48
  %50 = load i32, i32* %49, align 4
  %51 = load i32, i32* %2, align 4
  %52 = sext i32 %51 to i64
  %53 = getelementptr inbounds [300 x i32], [300 x i32]* %1, i64 0, i64 %52
  store i32 %50, i32* %53, align 4
  %54 = load i32, i32* %5, align 4
  %55 = load i32, i32* %2, align 4
  %56 = add nsw i32 %55, 1
  %57 = sext i32 %56 to i64
  %58 = getelementptr inbounds [300 x i32], [300 x i32]* %1, i64 0, i64 %57
  store i32 %54, i32* %58, align 4
  br label %59

59:                                               ; preds = %41, %30
  br label %60

60:                                               ; preds = %59
  %61 = load i32, i32* %2, align 4
  %62 = add nsw i32 %61, 1
  store i32 %62, i32* %2, align 4
  br label %23

63:                                               ; preds = %23
  br label %64

64:                                               ; preds = %63
  %65 = load i32, i32* %3, align 4
  %66 = add nsw i32 %65, 1
  store i32 %66, i32* %3, align 4
  br label %17

67:                                               ; preds = %17
  store i32 1, i32* %3, align 4
  br label %68

68:                                               ; preds = %87, %67
  %69 = load i32, i32* %3, align 4
  %70 = load i32, i32* %4, align 4
  %71 = icmp slt i32 %69, %70
  br i1 %71, label %72, label %90

72:                                               ; preds = %68
  %73 = load i32, i32* %3, align 4
  %74 = sext i32 %73 to i64
  %75 = getelementptr inbounds [300 x i32], [300 x i32]* %1, i64 0, i64 %74
  %76 = load i32, i32* %75, align 4
  %77 = getelementptr inbounds [300 x i32], [300 x i32]* %1, i64 0, i64 0
  %78 = load i32, i32* %77, align 16
  %79 = icmp slt i32 %76, %78
  br i1 %79, label %80, label %86

80:                                               ; preds = %72
  %81 = load i32, i32* %3, align 4
  %82 = sext i32 %81 to i64
  %83 = getelementptr inbounds [300 x i32], [300 x i32]* %1, i64 0, i64 %82
  %84 = load i32, i32* %83, align 4
  %85 = call i32 (i8*, ...) @printf(i8* getelementptr inbounds ([3 x i8], [3 x i8]* @.str, i64 0, i64 0), i32 %84)
  br label %90

86:                                               ; preds = %72
  br label %87

87:                                               ; preds = %86
  %88 = load i32, i32* %3, align 4
  %89 = add nsw i32 %88, 1
  store i32 %89, i32* %3, align 4
  br label %68

90:                                               ; preds = %80, %68
  %91 = load i32, i32* %3, align 4
  %92 = load i32, i32* %4, align 4
  %93 = icmp eq i32 %91, %92
  br i1 %93, label %94, label %96

94:                                               ; preds = %90
  %95 = call i32 (i8*, ...) @printf(i8* getelementptr inbounds ([3 x i8], [3 x i8]* @.str.1, i64 0, i64 0))
  br label %96

96:                                               ; preds = %94, %90
  ret void
}

declare dso_local i32 @__isoc99_scanf(i8*, ...) #1

declare dso_local i32 @getchar() #1

declare dso_local i32 @printf(i8*, ...) #1


!llvm.module.flags = !{!0}
!llvm.ident = !{!1}

!0 = !{i32 1, !"wchar_size", i32 4}
!1 = !{!"clang version 10.0.0-4ubuntu1 "}
